target datalayout = "e-m:e-p270:32:32-p271:32:32-p272:64:64-i64:64-i128:128-f80:128-n8:16:32:64-S128"
target triple = "x86_64-pc-linux-gnu"

; Function Attrs: nounwind uwtable
define internal i32 @toLitCond(i32 noundef %0, i32 noundef %1) #0 {
  %3 = alloca i32, align 4
  %4 = alloca i32, align 4
  store i32 %0, ptr %3, align 4
  store i32 %1, ptr %4, align 4
  %5 = load i32, ptr %3, align 4
  %6 = load i32, ptr %3, align 4
  %7 = add nsw i32 %5, %6
  %8 = load i32, ptr %4, align 4
  %9 = icmp ne i32 %8, 0
  %10 = zext i1 %9 to i32
  %11 = add nsw i32 %7, %10
  ret i32 %11
}

; Function Attrs: nounwind uwtable
define internal i32 @Card_AddHalfSorter(ptr noundef %0, i32 noundef %1, i32 noundef %2, i32 noundef %3, i32 noundef %4) #0 {
  %6 = alloca ptr, align 8
  %7 = alloca i32, align 4
  %8 = alloca i32, align 4
  %9 = alloca i32, align 4
  %10 = alloca i32, align 4
  %11 = alloca [3 x i32], align 4
  %12 = alloca i32, align 4
  store ptr %0, ptr %6, align 8
  store i32 %1, ptr %7, align 4
  store i32 %2, ptr %8, align 4
  store i32 %3, ptr %9, align 4
  store i32 %4, ptr %10, align 4
  %13 = load i32, ptr %7, align 4
  %14 = call i32 @toLitCond(i32 noundef %13, i32 noundef 0)
  %15 = getelementptr inbounds [3 x i32], ptr %11, i64 0, i64 0
  store i32 %14, ptr %15, align 4
  %16 = load i32, ptr %9, align 4
  %17 = call i32 @toLitCond(i32 noundef %16, i32 noundef 1)
  %18 = getelementptr inbounds [3 x i32], ptr %11, i64 0, i64 1
  store i32 %17, ptr %18, align 4
  %19 = load ptr, ptr %6, align 8
  %20 = getelementptr inbounds [3 x i32], ptr %11, i64 0, i64 0
  %21 = getelementptr inbounds [3 x i32], ptr %11, i64 0, i64 0
  %22 = getelementptr inbounds i32, ptr %21, i64 2
  %23 = call i32 @Card_AddClause(ptr noundef %19, ptr noundef %20, ptr noundef %22)
  store i32 %23, ptr %12, align 4
  %24 = load i32, ptr %7, align 4
  %25 = call i32 @toLitCond(i32 noundef %24, i32 noundef 0)
  %26 = getelementptr inbounds [3 x i32], ptr %11, i64 0, i64 0
  store i32 %25, ptr %26, align 4
  %27 = load i32, ptr %10, align 4
  %28 = call i32 @toLitCond(i32 noundef %27, i32 noundef 1)
  %29 = getelementptr inbounds [3 x i32], ptr %11, i64 0, i64 1
  store i32 %28, ptr %29, align 4
  %30 = load ptr, ptr %6, align 8
  %31 = getelementptr inbounds [3 x i32], ptr %11, i64 0, i64 0
  %32 = getelementptr inbounds [3 x i32], ptr %11, i64 0, i64 0
  %33 = getelementptr inbounds i32, ptr %32, i64 2
  %34 = call i32 @Card_AddClause(ptr noundef %30, ptr noundef %31, ptr noundef %33)
  store i32 %34, ptr %12, align 4
  %35 = load i32, ptr %8, align 4
  %36 = call i32 @toLitCond(i32 noundef %35, i32 noundef 0)
  %37 = getelementptr inbounds [3 x i32], ptr %11, i64 0, i64 0
  store i32 %36, ptr %37, align 4
  %38 = load i32, ptr %9, align 4
  %39 = call i32 @toLitCond(i32 noundef %38, i32 noundef 1)
  %40 = getelementptr inbounds [3 x i32], ptr %11, i64 0, i64 1
  store i32 %39, ptr %40, align 4
  %41 = load i32, ptr %10, align 4
  %42 = call i32 @toLitCond(i32 noundef %41, i32 noundef 1)
  %43 = getelementptr inbounds [3 x i32], ptr %11, i64 0, i64 2
  store i32 %42, ptr %43, align 4
  %44 = load ptr, ptr %6, align 8
  %45 = getelementptr inbounds [3 x i32], ptr %11, i64 0, i64 0
  %46 = getelementptr inbounds [3 x i32], ptr %11, i64 0, i64 0
  %47 = getelementptr inbounds i32, ptr %46, i64 3
  %48 = call i32 @Card_AddClause(ptr noundef %44, ptr noundef %45, ptr noundef %47)
  store i32 %48, ptr %12, align 4
  ret i32 3
}

; Function Attrs: nounwind uwtable
define internal void @Card_AddSorter(ptr noundef %0, ptr noundef %1, i32 noundef %2, i32 noundef %3, ptr noundef %4) #0 {
  %6 = alloca ptr, align 8
  %7 = alloca ptr, align 8
  %8 = alloca i32, align 4
  %9 = alloca i32, align 4
  %10 = alloca ptr, align 8
  %11 = alloca i32, align 4
  %12 = alloca i32, align 4
  store ptr %0, ptr %6, align 8
  store ptr %1, ptr %7, align 8
  store i32 %2, ptr %8, align 4
  store i32 %3, ptr %9, align 4
  store ptr %4, ptr %10, align 8
  %13 = load ptr, ptr %10, align 8
  %14 = load i32, ptr %13, align 4
  %15 = add nsw i32 %14, 1
  store i32 %15, ptr %13, align 4
  store i32 %14, ptr %11, align 4
  %16 = load ptr, ptr %10, align 8
  %17 = load i32, ptr %16, align 4
  %18 = add nsw i32 %17, 1
  store i32 %18, ptr %16, align 4
  store i32 %17, ptr %12, align 4
  %19 = load ptr, ptr %6, align 8
  %20 = load i32, ptr %11, align 4
  %21 = load i32, ptr %12, align 4
  %22 = load ptr, ptr %7, align 8
  %23 = load i32, ptr %8, align 4
  %24 = sext i32 %23 to i64
  %25 = getelementptr inbounds i32, ptr %22, i64 %24
  %26 = load i32, ptr %25, align 4
  %27 = load ptr, ptr %7, align 8
  %28 = load i32, ptr %9, align 4
  %29 = sext i32 %28 to i64
  %30 = getelementptr inbounds i32, ptr %27, i64 %29
  %31 = load i32, ptr %30, align 4
  %32 = call i32 @Card_AddHalfSorter(ptr noundef %19, i32 noundef %20, i32 noundef %21, i32 noundef %26, i32 noundef %31)
  %33 = load i32, ptr %11, align 4
  %34 = load ptr, ptr %7, align 8
  %35 = load i32, ptr %8, align 4
  %36 = sext i32 %35 to i64
  %37 = getelementptr inbounds i32, ptr %34, i64 %36
  store i32 %33, ptr %37, align 4
  %38 = load i32, ptr %12, align 4
  %39 = load ptr, ptr %7, align 8
  %40 = load i32, ptr %9, align 4
  %41 = sext i32 %40 to i64
  %42 = getelementptr inbounds i32, ptr %39, i64 %41
  store i32 %38, ptr %42, align 4
  ret void
}

; Function Attrs: nounwind uwtable
define internal void @Card_AddCardinConstrRange(ptr noundef %0, ptr noundef %1, i32 noundef %2, i32 noundef %3, ptr noundef %4) #0 {
  %6 = alloca ptr, align 8
  %7 = alloca ptr, align 8
  %8 = alloca i32, align 4
  %9 = alloca i32, align 4
  %10 = alloca ptr, align 8
  %11 = alloca i32, align 4
  %12 = alloca i32, align 4
  store ptr %0, ptr %6, align 8
  store ptr %1, ptr %7, align 8
  store i32 %2, ptr %8, align 4
  store i32 %3, ptr %9, align 4
  store ptr %4, ptr %10, align 8
  %13 = load i32, ptr %9, align 4
  %14 = load i32, ptr %8, align 4
  %15 = sub nsw i32 %13, %14
  %16 = icmp sge i32 %15, 1
  br i1 %16, label %17, label %61

17:                                               ; preds = %5
  %18 = load i32, ptr %8, align 4
  %19 = load i32, ptr %9, align 4
  %20 = load i32, ptr %8, align 4
  %21 = sub nsw i32 %19, %20
  %22 = sdiv i32 %21, 2
  %23 = add nsw i32 %18, %22
  store i32 %23, ptr %12, align 4
  %24 = load i32, ptr %8, align 4
  store i32 %24, ptr %11, align 4
  br label %25

25:                                               ; preds = %41, %17
  %26 = load i32, ptr %11, align 4
  %27 = load i32, ptr %12, align 4
  %28 = icmp sle i32 %26, %27
  br i1 %28, label %29, label %44

29:                                               ; preds = %25
  %30 = load ptr, ptr %6, align 8
  %31 = load ptr, ptr %7, align 8
  %32 = load i32, ptr %11, align 4
  %33 = load i32, ptr %11, align 4
  %34 = load i32, ptr %9, align 4
  %35 = load i32, ptr %8, align 4
  %36 = sub nsw i32 %34, %35
  %37 = add nsw i32 %36, 1
  %38 = sdiv i32 %37, 2
  %39 = add nsw i32 %33, %38
  %40 = load ptr, ptr %10, align 8
  call void @Card_AddSorter(ptr noundef %30, ptr noundef %31, i32 noundef %32, i32 noundef %39, ptr noundef %40)
  br label %41

41:                                               ; preds = %29
  %42 = load i32, ptr %11, align 4
  %43 = add nsw i32 %42, 1
  store i32 %43, ptr %11, align 4
  br label %25, !llvm.loop !15

44:                                               ; preds = %25
  %45 = load ptr, ptr %6, align 8
  %46 = load ptr, ptr %7, align 8
  %47 = load i32, ptr %8, align 4
  %48 = load i32, ptr %12, align 4
  %49 = load ptr, ptr %10, align 8
  call void @Card_AddCardinConstrRange(ptr noundef %45, ptr noundef %46, i32 noundef %47, i32 noundef %48, ptr noundef %49)
  %50 = load ptr, ptr %6, align 8
  %51 = load ptr, ptr %7, align 8
  %52 = load i32, ptr %12, align 4
  %53 = add nsw i32 %52, 1
  %54 = load i32, ptr %9, align 4
  %55 = load ptr, ptr %10, align 8
  call void @Card_AddCardinConstrRange(ptr noundef %50, ptr noundef %51, i32 noundef %53, i32 noundef %54, ptr noundef %55)
  %56 = load ptr, ptr %6, align 8
  %57 = load ptr, ptr %7, align 8
  %58 = load i32, ptr %8, align 4
  %59 = load i32, ptr %9, align 4
  %60 = load ptr, ptr %10, align 8
  call void @Card_AddCardinConstrMerge(ptr noundef %56, ptr noundef %57, i32 noundef %58, i32 noundef %59, i32 noundef 1, ptr noundef %60)
  br label %61

61:                                               ; preds = %44, %5
  ret void
}