; Function Attrs: nounwind uwtable
define internal fastcc void @Card_AddCardinConstrRange(ptr noundef %0, ptr noundef %1, i32 noundef range(i32 0, -2147483648) %2, i32 noundef %3, ptr noundef nonnull %4) unnamed_addr #0 {
  %6 = alloca [3 x i32], align 4
  %7 = sub nsw i32 %3, %2
  %8 = icmp sgt i32 %7, 0
  br i1 %8, label %9, label %35

9:                                                ; preds = %5
  %10 = lshr i32 %7, 1
  %11 = add nuw i32 %10, %2
  %12 = add nuw nsw i32 %7, 1
  %13 = lshr i32 %12, 1
  %14 = getelementptr inbounds nuw i8, ptr %6, i64 4
  %15 = getelementptr inbounds nuw i8, ptr %6, i64 8
  %16 = getelementptr inbounds nuw i8, ptr %6, i64 12
  %17 = zext nneg i32 %2 to i64
  %18 = zext nneg i32 %13 to i64
  %19 = add nuw i32 %11, 1
  %wide.trip.count = zext i32 %19 to i64
  %invariant.gep = getelementptr inbounds nuw i32, ptr %1, i64 %18
  br label %20

20:                                               ; preds = %9, %20
  %indvars.iv = phi i64 [ %17, %9 ], [ %indvars.iv.next, %20 ]
  %21 = load i32, ptr %4, align 4
  %22 = add nsw i32 %21, 1
  %23 = add nsw i32 %21, 2
  store i32 %23, ptr %4, align 4
  %24 = getelementptr inbounds nuw i32, ptr %1, i64 %indvars.iv
  %25 = load i32, ptr %24, align 4
  %gep = getelementptr inbounds nuw i32, ptr %invariant.gep, i64 %indvars.iv
  %26 = load i32, ptr %gep, align 4
  call void @llvm.lifetime.start.p0(i64 12, ptr nonnull %6)
  %27 = shl nsw i32 %21, 1
  store i32 %27, ptr %6, align 4
  %28 = shl nsw i32 %25, 1
  %29 = or disjoint i32 %28, 1
  store i32 %29, ptr %14, align 4
  call fastcc void @Card_AddClause(ptr noundef %0, ptr noundef %6, ptr noundef %15)
  store i32 %27, ptr %6, align 4
  %30 = shl nsw i32 %26, 1
  %31 = or disjoint i32 %30, 1
  store i32 %31, ptr %14, align 4
  call fastcc void @Card_AddClause(ptr noundef %0, ptr noundef %6, ptr noundef %15)
  %32 = shl nsw i32 %22, 1
  store i32 %32, ptr %6, align 4
  store i32 %29, ptr %14, align 4
  store i32 %31, ptr %15, align 4
  call fastcc void @Card_AddClause(ptr noundef %0, ptr noundef %6, ptr noundef %16)
  call void @llvm.lifetime.end.p0(i64 12, ptr nonnull %6)
  store i32 %21, ptr %24, align 4
  store i32 %22, ptr %gep, align 4
  %indvars.iv.next = add nuw nsw i64 %indvars.iv, 1
  %exitcond.not = icmp eq i64 %indvars.iv.next, %wide.trip.count
  br i1 %exitcond.not, label %33, label %20, !llvm.loop !15

33:                                               ; preds = %20
  call fastcc void @Card_AddCardinConstrRange(ptr noundef %0, ptr noundef nonnull %1, i32 noundef %2, i32 noundef %11, ptr noundef %4)
  %34 = add nuw nsw i32 %11, 1
  call fastcc void @Card_AddCardinConstrRange(ptr noundef %0, ptr noundef nonnull %1, i32 noundef %34, i32 noundef %3, ptr noundef %4)
  call fastcc void @Card_AddCardinConstrMerge(ptr noundef %0, ptr noundef nonnull %1, i32 noundef %2, i32 noundef %3, i32 noundef 1, ptr noundef %4)
  br label %35

35:                                               ; preds = %33, %5
  ret void
}